target datalayout = "e-m:e-p270:32:32-p271:32:32-p272:64:64-i64:64-i128:128-f80:128-n8:16:32:64-S128"
target triple = "x86_64-pc-linux-gnu"

%struct._lv_table_t = type { %struct._lv_obj_t, i32, i32, ptr, ptr, ptr, i32, i32 }
%struct._lv_obj_t = type { ptr, ptr, ptr, ptr, ptr, %struct.lv_area_t, i32, i16, i16 }
%struct.lv_area_t = type { i32, i32, i32, i32 }
%struct._lv_table_cell_t = type { i32, ptr, [1 x i8] }

@.str.1 = private unnamed_addr constant [1 x i8] zeroinitializer, align 1

; Function Attrs: inlinehint nounwind uwtable
define internal zeroext i1 @is_cell_empty(ptr noundef %0) #4 {
  %2 = alloca ptr, align 8
  store ptr %0, ptr %2, align 8, !tbaa !37
  %3 = load ptr, ptr %2, align 8, !tbaa !37
  %4 = icmp eq ptr %3, null
  ret i1 %4
}

; Function Attrs: nounwind uwtable
define ptr @lv_table_get_cell_value(ptr noundef %0, i32 noundef %1, i32 noundef %2) #0 {
  %4 = alloca ptr, align 8
  %5 = alloca ptr, align 8
  %6 = alloca i32, align 4
  %7 = alloca i32, align 4
  %8 = alloca ptr, align 8
  %9 = alloca i32, align 4
  %10 = alloca i32, align 4
  store ptr %0, ptr %5, align 8, !tbaa !8
  store i32 %1, ptr %6, align 4, !tbaa !25
  store i32 %2, ptr %7, align 4, !tbaa !25
  br label %11

11:                                               ; preds = %3
  %12 = load ptr, ptr %5, align 8, !tbaa !8
  %13 = icmp ne ptr %12, null
  br i1 %13, label %18, label %14

14:                                               ; preds = %11
  br label %15

15:                                               ; preds = %14
  br label %16

16:                                               ; preds = %15
  br label %17

17:                                               ; preds = %16, %17
  br label %17

18:                                               ; preds = %11
  br label %19

19:                                               ; preds = %18
  call void @llvm.lifetime.start.p0(i64 8, ptr %8) #6
  %20 = load ptr, ptr %5, align 8, !tbaa !8
  store ptr %20, ptr %8, align 8, !tbaa !10
  %21 = load i32, ptr %6, align 4, !tbaa !25
  %22 = load ptr, ptr %8, align 8, !tbaa !10
  %23 = getelementptr inbounds nuw %struct._lv_table_t, ptr %22, i32 0, i32 2
  %24 = load i32, ptr %23, align 4, !tbaa !22
  %25 = icmp uge i32 %21, %24
  br i1 %25, label %32, label %26

26:                                               ; preds = %19
  %27 = load i32, ptr %7, align 4, !tbaa !25
  %28 = load ptr, ptr %8, align 8, !tbaa !10
  %29 = getelementptr inbounds nuw %struct._lv_table_t, ptr %28, i32 0, i32 1
  %30 = load i32, ptr %29, align 8, !tbaa !12
  %31 = icmp uge i32 %27, %30
  br i1 %31, label %32, label %36

32:                                               ; preds = %26, %19
  br label %33

33:                                               ; preds = %32
  br label %34

34:                                               ; preds = %33
  br label %35

35:                                               ; preds = %34
  store ptr @.str.1, ptr %4, align 8
  store i32 1, ptr %9, align 4
  br label %64

36:                                               ; preds = %26
  call void @llvm.lifetime.start.p0(i64 4, ptr %10) #6
  %37 = load i32, ptr %6, align 4, !tbaa !25
  %38 = load ptr, ptr %8, align 8, !tbaa !10
  %39 = getelementptr inbounds nuw %struct._lv_table_t, ptr %38, i32 0, i32 1
  %40 = load i32, ptr %39, align 8, !tbaa !12
  %41 = mul i32 %37, %40
  %42 = load i32, ptr %7, align 4, !tbaa !25
  %43 = add i32 %41, %42
  store i32 %43, ptr %10, align 4, !tbaa !25
  %44 = load ptr, ptr %8, align 8, !tbaa !10
  %45 = getelementptr inbounds nuw %struct._lv_table_t, ptr %44, i32 0, i32 3
  %46 = load ptr, ptr %45, align 8, !tbaa !26
  %47 = load i32, ptr %10, align 4, !tbaa !25
  %48 = zext i32 %47 to i64
  %49 = getelementptr inbounds nuw ptr, ptr %46, i64 %48
  %50 = load ptr, ptr %49, align 8, !tbaa !27
  %51 = call zeroext i1 @is_cell_empty(ptr noundef %50)
  br i1 %51, label %52, label %53

52:                                               ; preds = %36
  store ptr @.str.1, ptr %4, align 8
  store i32 1, ptr %9, align 4
  br label %63

53:                                               ; preds = %36
  %54 = load ptr, ptr %8, align 8, !tbaa !10
  %55 = getelementptr inbounds nuw %struct._lv_table_t, ptr %54, i32 0, i32 3
  %56 = load ptr, ptr %55, align 8, !tbaa !26
  %57 = load i32, ptr %10, align 4, !tbaa !25
  %58 = zext i32 %57 to i64
  %59 = getelementptr inbounds nuw ptr, ptr %56, i64 %58
  %60 = load ptr, ptr %59, align 8, !tbaa !27
  %61 = getelementptr inbounds nuw %struct._lv_table_cell_t, ptr %60, i32 0, i32 2
  %62 = getelementptr inbounds [1 x i8], ptr %61, i64 0, i64 0
  store ptr %62, ptr %4, align 8
  store i32 1, ptr %9, align 4
  br label %63

63:                                               ; preds = %53, %52
  call void @llvm.lifetime.end.p0(i64 4, ptr %10) #6
  br label %64

64:                                               ; preds = %63, %35
  call void @llvm.lifetime.end.p0(i64 8, ptr %8) #6
  %65 = load ptr, ptr %4, align 8
  ret ptr %65
}