; Function Attrs: nofree norecurse nosync nounwind memory(read, inaccessiblemem: none) uwtable
define nonnull ptr @lv_table_get_cell_value(ptr noundef readonly captures(address_is_null) %0, i32 noundef %1, i32 noundef %2) local_unnamed_addr #4 {
  %.not = icmp eq ptr %0, null
  br i1 %.not, label %.preheader, label %4

.preheader:                                       ; preds = %3, %.preheader
  br label %.preheader

4:                                                ; preds = %3
  %5 = getelementptr inbounds nuw i8, ptr %0, i64 68
  %6 = load i32, ptr %5, align 4, !tbaa !18
  %.not17 = icmp ult i32 %1, %6
  br i1 %.not17, label %7, label %20

7:                                                ; preds = %4
  %8 = getelementptr inbounds nuw i8, ptr %0, i64 64
  %9 = load i32, ptr %8, align 8, !tbaa !3
  %.not18 = icmp ult i32 %2, %9
  br i1 %.not18, label %10, label %20

10:                                               ; preds = %7
  %11 = mul i32 %9, %1
  %12 = add i32 %11, %2
  %13 = getelementptr inbounds nuw i8, ptr %0, i64 72
  %14 = load ptr, ptr %13, align 8, !tbaa !22
  %15 = zext i32 %12 to i64
  %16 = getelementptr inbounds nuw ptr, ptr %14, i64 %15
  %17 = load ptr, ptr %16, align 8, !tbaa !23
  %18 = icmp eq ptr %17, null
  %19 = getelementptr inbounds nuw i8, ptr %17, i64 16
  %spec.select = select i1 %18, ptr @.str.1, ptr %19
  br label %20

20:                                               ; preds = %10, %7, %4
  %.0 = phi ptr [ @.str.1, %4 ], [ @.str.1, %7 ], [ %spec.select, %10 ]
  ret ptr %.0
}